target datalayout = "e-m:e-p270:32:32-p271:32:32-p272:64:64-i64:64-i128:128-f80:128-n8:16:32:64-S128"
target triple = "x86_64-pc-linux-gnu"

%struct._phpdbg_param = type { i32, i64, i64, %struct.anon, %struct.anon.0, ptr, i64, ptr, ptr }
%struct.anon = type { ptr, i64 }
%struct.anon.0 = type { ptr, ptr }

; Function Attrs: nounwind uwtable
define void @phpdbg_copy_param(ptr noundef %0, ptr noundef %1) #0 {
  %3 = alloca ptr, align 8
  %4 = alloca ptr, align 8
  store ptr %0, ptr %3, align 8
  store ptr %1, ptr %4, align 8
  %5 = load ptr, ptr %3, align 8
  %6 = getelementptr inbounds %struct._phpdbg_param, ptr %5, i32 0, i32 0
  %7 = load i32, ptr %6, align 8
  %8 = load ptr, ptr %4, align 8
  %9 = getelementptr inbounds %struct._phpdbg_param, ptr %8, i32 0, i32 0
  store i32 %7, ptr %9, align 8
  switch i32 %7, label %140 [
    i32 9, label %10
    i32 5, label %11
    i32 13, label %26
    i32 1, label %41
    i32 6, label %47
    i32 4, label %53
    i32 3, label %70
    i32 2, label %70
    i32 7, label %97
    i32 8, label %117
    i32 0, label %139
  ]

10:                                               ; preds = %2
  br label %141

11:                                               ; preds = %2
  %12 = load ptr, ptr %3, align 8
  %13 = getelementptr inbounds %struct._phpdbg_param, ptr %12, i32 0, i32 5
  %14 = load ptr, ptr %13, align 8
  %15 = load ptr, ptr %3, align 8
  %16 = getelementptr inbounds %struct._phpdbg_param, ptr %15, i32 0, i32 6
  %17 = load i64, ptr %16, align 8
  %18 = call noalias ptr @_estrndup(ptr noundef %14, i64 noundef %17)
  %19 = load ptr, ptr %4, align 8
  %20 = getelementptr inbounds %struct._phpdbg_param, ptr %19, i32 0, i32 5
  store ptr %18, ptr %20, align 8
  %21 = load ptr, ptr %3, align 8
  %22 = getelementptr inbounds %struct._phpdbg_param, ptr %21, i32 0, i32 6
  %23 = load i64, ptr %22, align 8
  %24 = load ptr, ptr %4, align 8
  %25 = getelementptr inbounds %struct._phpdbg_param, ptr %24, i32 0, i32 6
  store i64 %23, ptr %25, align 8
  br label %141

26:                                               ; preds = %2
  %27 = load ptr, ptr %3, align 8
  %28 = getelementptr inbounds %struct._phpdbg_param, ptr %27, i32 0, i32 5
  %29 = load ptr, ptr %28, align 8
  %30 = load ptr, ptr %3, align 8
  %31 = getelementptr inbounds %struct._phpdbg_param, ptr %30, i32 0, i32 6
  %32 = load i64, ptr %31, align 8
  %33 = call noalias ptr @_estrndup(ptr noundef %29, i64 noundef %32)
  %34 = load ptr, ptr %4, align 8
  %35 = getelementptr inbounds %struct._phpdbg_param, ptr %34, i32 0, i32 5
  store ptr %33, ptr %35, align 8
  %36 = load ptr, ptr %3, align 8
  %37 = getelementptr inbounds %struct._phpdbg_param, ptr %36, i32 0, i32 6
  %38 = load i64, ptr %37, align 8
  %39 = load ptr, ptr %4, align 8
  %40 = getelementptr inbounds %struct._phpdbg_param, ptr %39, i32 0, i32 6
  store i64 %38, ptr %40, align 8
  br label %141

41:                                               ; preds = %2
  %42 = load ptr, ptr %3, align 8
  %43 = getelementptr inbounds %struct._phpdbg_param, ptr %42, i32 0, i32 2
  %44 = load i64, ptr %43, align 8
  %45 = load ptr, ptr %4, align 8
  %46 = getelementptr inbounds %struct._phpdbg_param, ptr %45, i32 0, i32 2
  store i64 %44, ptr %46, align 8
  br label %141

47:                                               ; preds = %2
  %48 = load ptr, ptr %3, align 8
  %49 = getelementptr inbounds %struct._phpdbg_param, ptr %48, i32 0, i32 1
  %50 = load i64, ptr %49, align 8
  %51 = load ptr, ptr %4, align 8
  %52 = getelementptr inbounds %struct._phpdbg_param, ptr %51, i32 0, i32 1
  store i64 %50, ptr %52, align 8
  br label %141

53:                                               ; preds = %2
  %54 = load ptr, ptr %3, align 8
  %55 = getelementptr inbounds %struct._phpdbg_param, ptr %54, i32 0, i32 4
  %56 = getelementptr inbounds %struct.anon.0, ptr %55, i32 0, i32 0
  %57 = load ptr, ptr %56, align 8
  %58 = call noalias ptr @_estrdup(ptr noundef %57)
  %59 = load ptr, ptr %4, align 8
  %60 = getelementptr inbounds %struct._phpdbg_param, ptr %59, i32 0, i32 4
  %61 = getelementptr inbounds %struct.anon.0, ptr %60, i32 0, i32 0
  store ptr %58, ptr %61, align 8
  %62 = load ptr, ptr %3, align 8
  %63 = getelementptr inbounds %struct._phpdbg_param, ptr %62, i32 0, i32 4
  %64 = getelementptr inbounds %struct.anon.0, ptr %63, i32 0, i32 1
  %65 = load ptr, ptr %64, align 8
  %66 = call noalias ptr @_estrdup(ptr noundef %65)
  %67 = load ptr, ptr %4, align 8
  %68 = getelementptr inbounds %struct._phpdbg_param, ptr %67, i32 0, i32 4
  %69 = getelementptr inbounds %struct.anon.0, ptr %68, i32 0, i32 1
  store ptr %66, ptr %69, align 8
  br label %141

70:                                               ; preds = %2, %2
  %71 = load ptr, ptr %3, align 8
  %72 = getelementptr inbounds %struct._phpdbg_param, ptr %71, i32 0, i32 3
  %73 = getelementptr inbounds %struct.anon, ptr %72, i32 0, i32 0
  %74 = load ptr, ptr %73, align 8
  %75 = call noalias ptr @_estrdup(ptr noundef %74)
  %76 = load ptr, ptr %4, align 8
  %77 = getelementptr inbounds %struct._phpdbg_param, ptr %76, i32 0, i32 3
  %78 = getelementptr inbounds %struct.anon, ptr %77, i32 0, i32 0
  store ptr %75, ptr %78, align 8
  %79 = load ptr, ptr %3, align 8
  %80 = getelementptr inbounds %struct._phpdbg_param, ptr %79, i32 0, i32 3
  %81 = getelementptr inbounds %struct.anon, ptr %80, i32 0, i32 1
  %82 = load i64, ptr %81, align 8
  %83 = load ptr, ptr %4, align 8
  %84 = getelementptr inbounds %struct._phpdbg_param, ptr %83, i32 0, i32 3
  %85 = getelementptr inbounds %struct.anon, ptr %84, i32 0, i32 1
  store i64 %82, ptr %85, align 8
  %86 = load ptr, ptr %3, align 8
  %87 = getelementptr inbounds %struct._phpdbg_param, ptr %86, i32 0, i32 1
  %88 = load i64, ptr %87, align 8
  %89 = icmp ne i64 %88, 0
  br i1 %89, label %90, label %96

90:                                               ; preds = %70
  %91 = load ptr, ptr %3, align 8
  %92 = getelementptr inbounds %struct._phpdbg_param, ptr %91, i32 0, i32 1
  %93 = load i64, ptr %92, align 8
  %94 = load ptr, ptr %4, align 8
  %95 = getelementptr inbounds %struct._phpdbg_param, ptr %94, i32 0, i32 1
  store i64 %93, ptr %95, align 8
  br label %96

96:                                               ; preds = %90, %70
  br label %141

97:                                               ; preds = %2
  %98 = load ptr, ptr %3, align 8
  %99 = getelementptr inbounds %struct._phpdbg_param, ptr %98, i32 0, i32 5
  %100 = load ptr, ptr %99, align 8
  %101 = load ptr, ptr %3, align 8
  %102 = getelementptr inbounds %struct._phpdbg_param, ptr %101, i32 0, i32 6
  %103 = load i64, ptr %102, align 8
  %104 = call noalias ptr @_estrndup(ptr noundef %100, i64 noundef %103)
  %105 = load ptr, ptr %4, align 8
  %106 = getelementptr inbounds %struct._phpdbg_param, ptr %105, i32 0, i32 5
  store ptr %104, ptr %106, align 8
  %107 = load ptr, ptr %3, align 8
  %108 = getelementptr inbounds %struct._phpdbg_param, ptr %107, i32 0, i32 1
  %109 = load i64, ptr %108, align 8
  %110 = load ptr, ptr %4, align 8
  %111 = getelementptr inbounds %struct._phpdbg_param, ptr %110, i32 0, i32 1
  store i64 %109, ptr %111, align 8
  %112 = load ptr, ptr %3, align 8
  %113 = getelementptr inbounds %struct._phpdbg_param, ptr %112, i32 0, i32 6
  %114 = load i64, ptr %113, align 8
  %115 = load ptr, ptr %4, align 8
  %116 = getelementptr inbounds %struct._phpdbg_param, ptr %115, i32 0, i32 6
  store i64 %114, ptr %116, align 8
  br label %141

117:                                              ; preds = %2
  %118 = load ptr, ptr %3, align 8
  %119 = getelementptr inbounds %struct._phpdbg_param, ptr %118, i32 0, i32 4
  %120 = getelementptr inbounds %struct.anon.0, ptr %119, i32 0, i32 0
  %121 = load ptr, ptr %120, align 8
  %122 = call noalias ptr @_estrdup(ptr noundef %121)
  %123 = load ptr, ptr %4, align 8
  %124 = getelementptr inbounds %struct._phpdbg_param, ptr %123, i32 0, i32 4
  %125 = getelementptr inbounds %struct.anon.0, ptr %124, i32 0, i32 0
  store ptr %122, ptr %125, align 8
  %126 = load ptr, ptr %3, align 8
  %127 = getelementptr inbounds %struct._phpdbg_param, ptr %126, i32 0, i32 4
  %128 = getelementptr inbounds %struct.anon.0, ptr %127, i32 0, i32 1
  %129 = load ptr, ptr %128, align 8
  %130 = call noalias ptr @_estrdup(ptr noundef %129)
  %131 = load ptr, ptr %4, align 8
  %132 = getelementptr inbounds %struct._phpdbg_param, ptr %131, i32 0, i32 4
  %133 = getelementptr inbounds %struct.anon.0, ptr %132, i32 0, i32 1
  store ptr %130, ptr %133, align 8
  %134 = load ptr, ptr %3, align 8
  %135 = getelementptr inbounds %struct._phpdbg_param, ptr %134, i32 0, i32 1
  %136 = load i64, ptr %135, align 8
  %137 = load ptr, ptr %4, align 8
  %138 = getelementptr inbounds %struct._phpdbg_param, ptr %137, i32 0, i32 1
  store i64 %136, ptr %138, align 8
  br label %141

139:                                              ; preds = %2
  br label %141

140:                                              ; preds = %2
  br label %141

141:                                              ; preds = %140, %139, %117, %97, %96, %53, %47, %41, %26, %11, %10
  ret void
}