; Function Attrs: nounwind uwtable
define void @phpdbg_copy_param(ptr nocapture noundef readonly %0, ptr nocapture noundef writeonly %1) local_unnamed_addr #1 {
  %3 = load i32, ptr %0, align 8
  store i32 %3, ptr %1, align 8
  switch i32 %3, label %75 [
    i32 8, label %63
    i32 5, label %4
    i32 13, label %13
    i32 1, label %22
    i32 6, label %26
    i32 4, label %30
    i32 3, label %39
    i32 2, label %39
    i32 7, label %51
  ]

4:                                                ; preds = %2
  %5 = getelementptr inbounds i8, ptr %0, i64 56
  %6 = load ptr, ptr %5, align 8
  %7 = getelementptr inbounds i8, ptr %0, i64 64
  %8 = load i64, ptr %7, align 8
  %9 = tail call noalias ptr @_estrndup(ptr noundef %6, i64 noundef %8) #22
  %10 = getelementptr inbounds i8, ptr %1, i64 56
  store ptr %9, ptr %10, align 8
  %11 = load i64, ptr %7, align 8
  %12 = getelementptr inbounds i8, ptr %1, i64 64
  store i64 %11, ptr %12, align 8
  br label %75

13:                                               ; preds = %2
  %14 = getelementptr inbounds i8, ptr %0, i64 56
  %15 = load ptr, ptr %14, align 8
  %16 = getelementptr inbounds i8, ptr %0, i64 64
  %17 = load i64, ptr %16, align 8
  %18 = tail call noalias ptr @_estrndup(ptr noundef %15, i64 noundef %17) #22
  %19 = getelementptr inbounds i8, ptr %1, i64 56
  store ptr %18, ptr %19, align 8
  %20 = load i64, ptr %16, align 8
  %21 = getelementptr inbounds i8, ptr %1, i64 64
  store i64 %20, ptr %21, align 8
  br label %75

22:                                               ; preds = %2
  %23 = getelementptr inbounds i8, ptr %0, i64 16
  %24 = load i64, ptr %23, align 8
  %25 = getelementptr inbounds i8, ptr %1, i64 16
  store i64 %24, ptr %25, align 8
  br label %75

26:                                               ; preds = %2
  %27 = getelementptr inbounds i8, ptr %0, i64 8
  %28 = load i64, ptr %27, align 8
  %29 = getelementptr inbounds i8, ptr %1, i64 8
  store i64 %28, ptr %29, align 8
  br label %75

30:                                               ; preds = %2
  %31 = getelementptr inbounds i8, ptr %0, i64 40
  %32 = load ptr, ptr %31, align 8
  %33 = tail call noalias ptr @_estrdup(ptr noundef %32) #22
  %34 = getelementptr inbounds i8, ptr %1, i64 40
  store ptr %33, ptr %34, align 8
  %35 = getelementptr inbounds i8, ptr %0, i64 48
  %36 = load ptr, ptr %35, align 8
  %37 = tail call noalias ptr @_estrdup(ptr noundef %36) #22
  %38 = getelementptr inbounds i8, ptr %1, i64 48
  store ptr %37, ptr %38, align 8
  br label %75

39:                                               ; preds = %2, %2
  %40 = getelementptr inbounds i8, ptr %0, i64 24
  %41 = load ptr, ptr %40, align 8
  %42 = tail call noalias ptr @_estrdup(ptr noundef %41) #22
  %43 = getelementptr inbounds i8, ptr %1, i64 24
  store ptr %42, ptr %43, align 8
  %44 = getelementptr inbounds i8, ptr %0, i64 32
  %45 = load i64, ptr %44, align 8
  %46 = getelementptr inbounds i8, ptr %1, i64 32
  store i64 %45, ptr %46, align 8
  %47 = getelementptr inbounds i8, ptr %0, i64 8
  %48 = load i64, ptr %47, align 8
  %.not = icmp eq i64 %48, 0
  br i1 %.not, label %75, label %49

49:                                               ; preds = %39
  %50 = getelementptr inbounds i8, ptr %1, i64 8
  store i64 %48, ptr %50, align 8
  br label %75

51:                                               ; preds = %2
  %52 = getelementptr inbounds i8, ptr %0, i64 56
  %53 = load ptr, ptr %52, align 8
  %54 = getelementptr inbounds i8, ptr %0, i64 64
  %55 = load i64, ptr %54, align 8
  %56 = tail call noalias ptr @_estrndup(ptr noundef %53, i64 noundef %55) #22
  %57 = getelementptr inbounds i8, ptr %1, i64 56
  store ptr %56, ptr %57, align 8
  %58 = getelementptr inbounds i8, ptr %0, i64 8
  %59 = load i64, ptr %58, align 8
  %60 = getelementptr inbounds i8, ptr %1, i64 8
  store i64 %59, ptr %60, align 8
  %61 = load i64, ptr %54, align 8
  %62 = getelementptr inbounds i8, ptr %1, i64 64
  store i64 %61, ptr %62, align 8
  br label %75

63:                                               ; preds = %2
  %64 = getelementptr inbounds i8, ptr %0, i64 40
  %65 = load ptr, ptr %64, align 8
  %66 = tail call noalias ptr @_estrdup(ptr noundef %65) #22
  %67 = getelementptr inbounds i8, ptr %1, i64 40
  store ptr %66, ptr %67, align 8
  %68 = getelementptr inbounds i8, ptr %0, i64 48
  %69 = load ptr, ptr %68, align 8
  %70 = tail call noalias ptr @_estrdup(ptr noundef %69) #22
  %71 = getelementptr inbounds i8, ptr %1, i64 48
  store ptr %70, ptr %71, align 8
  %72 = getelementptr inbounds i8, ptr %0, i64 8
  %73 = load i64, ptr %72, align 8
  %74 = getelementptr inbounds i8, ptr %1, i64 8
  store i64 %73, ptr %74, align 8
  br label %75

75:                                               ; preds = %2, %39, %49, %63, %51, %30, %26, %22, %13, %4
  ret void
}